ARM GAS  /tmp/ccGFOAGz.s 			page 1


   1              		.cpu cortex-m4
   2              		.arch armv7e-m
   3              		.fpu fpv4-sp-d16
   4              		.eabi_attribute 27, 1
   5              		.eabi_attribute 28, 1
   6              		.eabi_attribute 20, 1
   7              		.eabi_attribute 21, 1
   8              		.eabi_attribute 23, 3
   9              		.eabi_attribute 24, 1
  10              		.eabi_attribute 25, 1
  11              		.eabi_attribute 26, 1
  12              		.eabi_attribute 30, 1
  13              		.eabi_attribute 34, 1
  14              		.eabi_attribute 18, 4
  15              		.file	"com.c"
  16              		.text
  17              	.Ltext0:
  18              		.cfi_sections	.debug_frame
  19              		.file 1 "Core/Src/BLT/com.c"
  20              		.section	.text.ComInit,"ax",%progbits
  21              		.align	1
  22              		.global	ComInit
  23              		.syntax unified
  24              		.thumb
  25              		.thumb_func
  27              	ComInit:
  28              	.LFB0:
   1:Core/Src/BLT/com.c **** /************************************************************************************//**
   2:Core/Src/BLT/com.c **** * \file         Source/com.c
   3:Core/Src/BLT/com.c **** * \brief        Bootloader communication interface source file.
   4:Core/Src/BLT/com.c **** * \ingroup      Core
   5:Core/Src/BLT/com.c **** * \internal
   6:Core/Src/BLT/com.c **** *----------------------------------------------------------------------------------------
   7:Core/Src/BLT/com.c **** *                          C O P Y R I G H T
   8:Core/Src/BLT/com.c **** *----------------------------------------------------------------------------------------
   9:Core/Src/BLT/com.c **** *   Copyright (c) 2011  by Feaser    http://www.feaser.com    All rights reserved
  10:Core/Src/BLT/com.c **** *
  11:Core/Src/BLT/com.c **** *----------------------------------------------------------------------------------------
  12:Core/Src/BLT/com.c **** *                            L I C E N S E
  13:Core/Src/BLT/com.c **** *----------------------------------------------------------------------------------------
  14:Core/Src/BLT/com.c **** * This file is part of OpenBLT. OpenBLT is free software: you can redistribute it and/or
  15:Core/Src/BLT/com.c **** * modify it under the terms of the GNU General Public License as published by the Free
  16:Core/Src/BLT/com.c **** * Software Foundation, either version 3 of the License, or (at your option) any later
  17:Core/Src/BLT/com.c **** * version.
  18:Core/Src/BLT/com.c **** *
  19:Core/Src/BLT/com.c **** * OpenBLT is distributed in the hope that it will be useful, but WITHOUT ANY WARRANTY;
  20:Core/Src/BLT/com.c **** * without even the implied warranty of MERCHANTABILITY or FITNESS FOR A PARTICULAR
  21:Core/Src/BLT/com.c **** * PURPOSE. See the GNU General Public License for more details.
  22:Core/Src/BLT/com.c **** *
  23:Core/Src/BLT/com.c **** * You have received a copy of the GNU General Public License along with OpenBLT. It
  24:Core/Src/BLT/com.c **** * should be located in ".\Doc\license.html". If not, contact Feaser to obtain a copy.
  25:Core/Src/BLT/com.c **** *
  26:Core/Src/BLT/com.c **** * \endinternal
  27:Core/Src/BLT/com.c **** ****************************************************************************************/
  28:Core/Src/BLT/com.c **** 
  29:Core/Src/BLT/com.c **** /****************************************************************************************
  30:Core/Src/BLT/com.c **** * Include files
ARM GAS  /tmp/ccGFOAGz.s 			page 2


  31:Core/Src/BLT/com.c **** ****************************************************************************************/
  32:Core/Src/BLT/com.c **** #include "BLT/boot.h"                                /* bootloader generic header          */
  33:Core/Src/BLT/com.c **** #if (BOOT_COM_CAN_ENABLE > 0)
  34:Core/Src/BLT/com.c **** #include "BLT/can.h"                                 /* can driver module                  */
  35:Core/Src/BLT/com.c **** #endif
  36:Core/Src/BLT/com.c **** 
  37:Core/Src/BLT/com.c **** #if (BOOT_COM_ENABLE > 0)
  38:Core/Src/BLT/com.c **** /****************************************************************************************
  39:Core/Src/BLT/com.c **** * Local data declarations
  40:Core/Src/BLT/com.c **** ****************************************************************************************/
  41:Core/Src/BLT/com.c **** /** \brief Holds the communication interface of the currently active interface. */
  42:Core/Src/BLT/com.c **** static tComInterfaceId comActiveInterface = COM_IF_OTHER;
  43:Core/Src/BLT/com.c **** 
  44:Core/Src/BLT/com.c **** 
  45:Core/Src/BLT/com.c **** /************************************************************************************//**
  46:Core/Src/BLT/com.c **** ** \brief     Initializes the communication module including the hardware needed for
  47:Core/Src/BLT/com.c **** **            the communication.
  48:Core/Src/BLT/com.c **** ** \return    none
  49:Core/Src/BLT/com.c **** **
  50:Core/Src/BLT/com.c **** ****************************************************************************************/
  51:Core/Src/BLT/com.c **** void ComInit(void)
  52:Core/Src/BLT/com.c **** {
  29              		.loc 1 52 1 view -0
  30              		.cfi_startproc
  31              		@ args = 0, pretend = 0, frame = 0
  32              		@ frame_needed = 0, uses_anonymous_args = 0
  33 0000 08B5     		push	{r3, lr}
  34              		.cfi_def_cfa_offset 8
  35              		.cfi_offset 3, -8
  36              		.cfi_offset 14, -4
  53:Core/Src/BLT/com.c ****   /* initialize the XCP communication protocol */
  54:Core/Src/BLT/com.c ****   XcpInit();
  37              		.loc 1 54 3 view .LVU1
  38 0002 FFF7FEFF 		bl	XcpInit
  39              	.LVL0:
  55:Core/Src/BLT/com.c **** #if (BOOT_COM_CAN_ENABLE > 0)
  56:Core/Src/BLT/com.c ****   /* initialize the CAN controller */
  57:Core/Src/BLT/com.c ****   //CanInit();
  58:Core/Src/BLT/com.c ****   /* set it as active */
  59:Core/Src/BLT/com.c ****   comActiveInterface = COM_IF_CAN;
  40              		.loc 1 59 3 view .LVU2
  41              		.loc 1 59 22 is_stmt 0 view .LVU3
  42 0006 024B     		ldr	r3, .L3
  43 0008 0122     		movs	r2, #1
  44 000a 1A70     		strb	r2, [r3]
  60:Core/Src/BLT/com.c **** #endif
  61:Core/Src/BLT/com.c **** } /*** end of ComInit ***/
  45              		.loc 1 61 1 view .LVU4
  46 000c 08BD     		pop	{r3, pc}
  47              	.L4:
  48 000e 00BF     		.align	2
  49              	.L3:
  50 0010 00000000 		.word	comActiveInterface
  51              		.cfi_endproc
  52              	.LFE0:
  54              		.section	.text.ComTask,"ax",%progbits
  55              		.align	1
ARM GAS  /tmp/ccGFOAGz.s 			page 3


  56              		.global	ComTask
  57              		.syntax unified
  58              		.thumb
  59              		.thumb_func
  61              	ComTask:
  62              	.LFB1:
  62:Core/Src/BLT/com.c **** 
  63:Core/Src/BLT/com.c **** 
  64:Core/Src/BLT/com.c **** /************************************************************************************//**
  65:Core/Src/BLT/com.c **** ** \brief     Updates the communication module by checking if new data was received
  66:Core/Src/BLT/com.c **** **            and submitting the request to process newly received data.
  67:Core/Src/BLT/com.c **** ** \return    none
  68:Core/Src/BLT/com.c **** **
  69:Core/Src/BLT/com.c **** ****************************************************************************************/
  70:Core/Src/BLT/com.c **** void ComTask(void)
  71:Core/Src/BLT/com.c **** {
  63              		.loc 1 71 1 is_stmt 1 view -0
  64              		.cfi_startproc
  65              		@ args = 0, pretend = 0, frame = 8
  66              		@ frame_needed = 0, uses_anonymous_args = 0
  67 0000 00B5     		push	{lr}
  68              		.cfi_def_cfa_offset 4
  69              		.cfi_offset 14, -4
  70 0002 83B0     		sub	sp, sp, #12
  71              		.cfi_def_cfa_offset 16
  72:Core/Src/BLT/com.c ****   blt_int8u xcpPacketLen;
  72              		.loc 1 72 3 view .LVU6
  73:Core/Src/BLT/com.c ****   /* make xcpCtoReqPacket static for runtime efficiency */
  74:Core/Src/BLT/com.c ****   static blt_int8u xcpCtoReqPacket[BOOT_COM_RX_MAX_DATA];
  73              		.loc 1 74 3 view .LVU7
  75:Core/Src/BLT/com.c **** 
  76:Core/Src/BLT/com.c **** #if (BOOT_COM_CAN_ENABLE > 0)
  77:Core/Src/BLT/com.c ****   if (CanReceivePacket(&xcpCtoReqPacket[0], &xcpPacketLen) == BLT_TRUE)
  74              		.loc 1 77 3 view .LVU8
  75              		.loc 1 77 7 is_stmt 0 view .LVU9
  76 0004 0DF10701 		add	r1, sp, #7
  77 0008 0848     		ldr	r0, .L9
  78 000a FFF7FEFF 		bl	CanReceivePacket
  79              	.LVL1:
  80              		.loc 1 77 6 view .LVU10
  81 000e 0128     		cmp	r0, #1
  82 0010 02D0     		beq	.L8
  83              	.L5:
  78:Core/Src/BLT/com.c ****   {
  79:Core/Src/BLT/com.c ****     /* make this the active interface */
  80:Core/Src/BLT/com.c ****     comActiveInterface = COM_IF_CAN;
  81:Core/Src/BLT/com.c ****     /* process packet */
  82:Core/Src/BLT/com.c ****     XcpPacketReceived(&xcpCtoReqPacket[0], xcpPacketLen);
  83:Core/Src/BLT/com.c ****   }
  84:Core/Src/BLT/com.c **** #endif
  85:Core/Src/BLT/com.c **** } /*** end of ComTask ***/
  84              		.loc 1 85 1 view .LVU11
  85 0012 03B0     		add	sp, sp, #12
  86              		.cfi_remember_state
  87              		.cfi_def_cfa_offset 4
  88              		@ sp needed
  89 0014 5DF804FB 		ldr	pc, [sp], #4
ARM GAS  /tmp/ccGFOAGz.s 			page 4


  90              	.L8:
  91              		.cfi_restore_state
  80:Core/Src/BLT/com.c ****     /* process packet */
  92              		.loc 1 80 5 is_stmt 1 view .LVU12
  80:Core/Src/BLT/com.c ****     /* process packet */
  93              		.loc 1 80 24 is_stmt 0 view .LVU13
  94 0018 054B     		ldr	r3, .L9+4
  95 001a 0122     		movs	r2, #1
  96 001c 1A70     		strb	r2, [r3]
  82:Core/Src/BLT/com.c ****   }
  97              		.loc 1 82 5 is_stmt 1 view .LVU14
  98 001e 9DF80710 		ldrb	r1, [sp, #7]	@ zero_extendqisi2
  99 0022 0248     		ldr	r0, .L9
 100 0024 FFF7FEFF 		bl	XcpPacketReceived
 101              	.LVL2:
 102              		.loc 1 85 1 is_stmt 0 view .LVU15
 103 0028 F3E7     		b	.L5
 104              	.L10:
 105 002a 00BF     		.align	2
 106              	.L9:
 107 002c 00000000 		.word	xcpCtoReqPacket.0
 108 0030 00000000 		.word	comActiveInterface
 109              		.cfi_endproc
 110              	.LFE1:
 112              		.section	.text.ComFree,"ax",%progbits
 113              		.align	1
 114              		.global	ComFree
 115              		.syntax unified
 116              		.thumb
 117              		.thumb_func
 119              	ComFree:
 120              	.LFB2:
  86:Core/Src/BLT/com.c **** 
  87:Core/Src/BLT/com.c **** 
  88:Core/Src/BLT/com.c **** /************************************************************************************//**
  89:Core/Src/BLT/com.c **** ** \brief     Releases the communication module.
  90:Core/Src/BLT/com.c **** ** \return    none
  91:Core/Src/BLT/com.c **** **
  92:Core/Src/BLT/com.c **** ****************************************************************************************/
  93:Core/Src/BLT/com.c **** void ComFree(void)
  94:Core/Src/BLT/com.c **** {
 121              		.loc 1 94 1 is_stmt 1 view -0
 122              		.cfi_startproc
 123              		@ args = 0, pretend = 0, frame = 0
 124              		@ frame_needed = 0, uses_anonymous_args = 0
 125              		@ link register save eliminated.
  95:Core/Src/BLT/com.c **** } /*** end of ComFree ***/
 126              		.loc 1 95 1 view .LVU17
 127 0000 7047     		bx	lr
 128              		.cfi_endproc
 129              	.LFE2:
 131              		.section	.text.ComTransmitPacket,"ax",%progbits
 132              		.align	1
 133              		.global	ComTransmitPacket
 134              		.syntax unified
 135              		.thumb
 136              		.thumb_func
ARM GAS  /tmp/ccGFOAGz.s 			page 5


 138              	ComTransmitPacket:
 139              	.LVL3:
 140              	.LFB3:
  96:Core/Src/BLT/com.c **** 
  97:Core/Src/BLT/com.c **** 
  98:Core/Src/BLT/com.c **** /************************************************************************************//**
  99:Core/Src/BLT/com.c **** ** \brief     Transmits the packet using the xcp transport layer.
 100:Core/Src/BLT/com.c **** ** \param     data Pointer to the byte buffer with packet data.
 101:Core/Src/BLT/com.c **** ** \param     len  Number of data bytes that need to be transmitted.
 102:Core/Src/BLT/com.c **** ** \return    none
 103:Core/Src/BLT/com.c **** **
 104:Core/Src/BLT/com.c **** ****************************************************************************************/
 105:Core/Src/BLT/com.c **** void ComTransmitPacket(blt_int8u *data, blt_int16u len)
 106:Core/Src/BLT/com.c **** {
 141              		.loc 1 106 1 view -0
 142              		.cfi_startproc
 143              		@ args = 0, pretend = 0, frame = 0
 144              		@ frame_needed = 0, uses_anonymous_args = 0
 145              		.loc 1 106 1 is_stmt 0 view .LVU19
 146 0000 08B5     		push	{r3, lr}
 147              		.cfi_def_cfa_offset 8
 148              		.cfi_offset 3, -8
 149              		.cfi_offset 14, -4
 107:Core/Src/BLT/com.c **** #if (BOOT_COM_CAN_ENABLE > 0)
 108:Core/Src/BLT/com.c ****   /* transmit the packet. note that len is limited to 8 in the plausibility check,
 109:Core/Src/BLT/com.c ****    * so cast is okay.
 110:Core/Src/BLT/com.c ****    */
 111:Core/Src/BLT/com.c ****   if (comActiveInterface == COM_IF_CAN)
 150              		.loc 1 111 3 is_stmt 1 view .LVU20
 151              		.loc 1 111 26 is_stmt 0 view .LVU21
 152 0002 054B     		ldr	r3, .L16
 153 0004 1B78     		ldrb	r3, [r3]	@ zero_extendqisi2
 154              		.loc 1 111 6 view .LVU22
 155 0006 012B     		cmp	r3, #1
 156 0008 02D0     		beq	.L15
 157              	.LVL4:
 158              	.L13:
 112:Core/Src/BLT/com.c ****   {
 113:Core/Src/BLT/com.c ****     CanTransmitPacket(data, (blt_int8u)len);
 114:Core/Src/BLT/com.c ****   }
 115:Core/Src/BLT/com.c **** #endif
 116:Core/Src/BLT/com.c **** 
 117:Core/Src/BLT/com.c ****   /* send signal that the packet was transmitted */
 118:Core/Src/BLT/com.c ****   XcpPacketTransmitted();
 159              		.loc 1 118 3 is_stmt 1 view .LVU23
 160 000a FFF7FEFF 		bl	XcpPacketTransmitted
 161              	.LVL5:
 119:Core/Src/BLT/com.c **** } /*** end of ComTransmitPacket ***/
 162              		.loc 1 119 1 is_stmt 0 view .LVU24
 163 000e 08BD     		pop	{r3, pc}
 164              	.LVL6:
 165              	.L15:
 113:Core/Src/BLT/com.c ****   }
 166              		.loc 1 113 5 is_stmt 1 view .LVU25
 167 0010 C9B2     		uxtb	r1, r1
 168              	.LVL7:
 113:Core/Src/BLT/com.c ****   }
ARM GAS  /tmp/ccGFOAGz.s 			page 6


 169              		.loc 1 113 5 is_stmt 0 view .LVU26
 170 0012 FFF7FEFF 		bl	CanTransmitPacket
 171              	.LVL8:
 113:Core/Src/BLT/com.c ****   }
 172              		.loc 1 113 5 view .LVU27
 173 0016 F8E7     		b	.L13
 174              	.L17:
 175              		.align	2
 176              	.L16:
 177 0018 00000000 		.word	comActiveInterface
 178              		.cfi_endproc
 179              	.LFE3:
 181              		.section	.text.ComGetActiveInterfaceMaxRxLen,"ax",%progbits
 182              		.align	1
 183              		.global	ComGetActiveInterfaceMaxRxLen
 184              		.syntax unified
 185              		.thumb
 186              		.thumb_func
 188              	ComGetActiveInterfaceMaxRxLen:
 189              	.LFB4:
 120:Core/Src/BLT/com.c **** 
 121:Core/Src/BLT/com.c **** 
 122:Core/Src/BLT/com.c **** /************************************************************************************//**
 123:Core/Src/BLT/com.c **** ** \brief     Obtains the maximum number of bytes that can be received on the specified
 124:Core/Src/BLT/com.c **** **            communication interface.
 125:Core/Src/BLT/com.c **** ** \return    Maximum number of bytes that can be received.
 126:Core/Src/BLT/com.c **** **
 127:Core/Src/BLT/com.c **** ****************************************************************************************/
 128:Core/Src/BLT/com.c **** blt_int16u ComGetActiveInterfaceMaxRxLen(void)
 129:Core/Src/BLT/com.c **** {
 190              		.loc 1 129 1 is_stmt 1 view -0
 191              		.cfi_startproc
 192              		@ args = 0, pretend = 0, frame = 0
 193              		@ frame_needed = 0, uses_anonymous_args = 0
 194              		@ link register save eliminated.
 130:Core/Src/BLT/com.c ****   blt_int16u result;
 195              		.loc 1 130 3 view .LVU29
 131:Core/Src/BLT/com.c **** 
 132:Core/Src/BLT/com.c ****   /* filter on communication interface identifier */
 133:Core/Src/BLT/com.c ****   switch (comActiveInterface)
 196              		.loc 1 133 3 view .LVU30
 197 0000 074B     		ldr	r3, .L24
 198 0002 1B78     		ldrb	r3, [r3]	@ zero_extendqisi2
 199 0004 022B     		cmp	r3, #2
 200 0006 07D0     		beq	.L20
 201 0008 032B     		cmp	r3, #3
 202 000a 07D0     		beq	.L21
 203 000c 012B     		cmp	r3, #1
 204 000e 01D0     		beq	.L23
 205 0010 4020     		movs	r0, #64
 206              	.LVL9:
 134:Core/Src/BLT/com.c ****   {
 135:Core/Src/BLT/com.c ****     case COM_IF_RS232:
 136:Core/Src/BLT/com.c ****       result = BOOT_COM_RS232_RX_MAX_DATA;
 137:Core/Src/BLT/com.c ****       break;
 138:Core/Src/BLT/com.c **** 
 139:Core/Src/BLT/com.c ****     case COM_IF_CAN:
ARM GAS  /tmp/ccGFOAGz.s 			page 7


 140:Core/Src/BLT/com.c ****       result = BOOT_COM_CAN_RX_MAX_DATA;
 141:Core/Src/BLT/com.c ****       break;
 142:Core/Src/BLT/com.c **** 
 143:Core/Src/BLT/com.c ****     case COM_IF_USB:
 144:Core/Src/BLT/com.c ****       result = BOOT_COM_USB_RX_MAX_DATA;
 145:Core/Src/BLT/com.c ****       break;
 146:Core/Src/BLT/com.c **** 
 147:Core/Src/BLT/com.c ****     case COM_IF_NET:
 148:Core/Src/BLT/com.c ****       result = BOOT_COM_NET_RX_MAX_DATA;
 149:Core/Src/BLT/com.c ****       break;
 150:Core/Src/BLT/com.c **** 
 151:Core/Src/BLT/com.c ****     default:
 152:Core/Src/BLT/com.c ****       result = BOOT_COM_RX_MAX_DATA;
 153:Core/Src/BLT/com.c ****       break;
 154:Core/Src/BLT/com.c ****   }
 155:Core/Src/BLT/com.c **** 
 156:Core/Src/BLT/com.c ****   return result;
 207              		.loc 1 156 3 view .LVU31
 157:Core/Src/BLT/com.c **** } /*** end of ComGetActiveInterfaceMaxRxLen ***/
 208              		.loc 1 157 1 is_stmt 0 view .LVU32
 209 0012 7047     		bx	lr
 210              	.LVL10:
 211              	.L23:
 140:Core/Src/BLT/com.c ****       break;
 212              		.loc 1 140 14 view .LVU33
 213 0014 0820     		movs	r0, #8
 214 0016 7047     		bx	lr
 215              	.L20:
 144:Core/Src/BLT/com.c ****       break;
 216              		.loc 1 144 14 view .LVU34
 217 0018 3F20     		movs	r0, #63
 218 001a 7047     		bx	lr
 219              	.L21:
 148:Core/Src/BLT/com.c ****       break;
 220              		.loc 1 148 14 view .LVU35
 221 001c 0020     		movs	r0, #0
 222 001e 7047     		bx	lr
 223              	.L25:
 224              		.align	2
 225              	.L24:
 226 0020 00000000 		.word	comActiveInterface
 227              		.cfi_endproc
 228              	.LFE4:
 230              		.section	.text.ComGetActiveInterfaceMaxTxLen,"ax",%progbits
 231              		.align	1
 232              		.global	ComGetActiveInterfaceMaxTxLen
 233              		.syntax unified
 234              		.thumb
 235              		.thumb_func
 237              	ComGetActiveInterfaceMaxTxLen:
 238              	.LFB5:
 158:Core/Src/BLT/com.c **** 
 159:Core/Src/BLT/com.c **** 
 160:Core/Src/BLT/com.c **** /************************************************************************************//**
 161:Core/Src/BLT/com.c **** ** \brief     Obtains the maximum number of bytes that can be transmitted on the
 162:Core/Src/BLT/com.c **** **            specified communication interface.
 163:Core/Src/BLT/com.c **** ** \return    Maximum number of bytes that can be received.
ARM GAS  /tmp/ccGFOAGz.s 			page 8


 164:Core/Src/BLT/com.c **** **
 165:Core/Src/BLT/com.c **** ****************************************************************************************/
 166:Core/Src/BLT/com.c **** blt_int16u ComGetActiveInterfaceMaxTxLen(void)
 167:Core/Src/BLT/com.c **** {
 239              		.loc 1 167 1 is_stmt 1 view -0
 240              		.cfi_startproc
 241              		@ args = 0, pretend = 0, frame = 0
 242              		@ frame_needed = 0, uses_anonymous_args = 0
 243              		@ link register save eliminated.
 168:Core/Src/BLT/com.c ****   blt_int16u result;
 244              		.loc 1 168 3 view .LVU37
 169:Core/Src/BLT/com.c **** 
 170:Core/Src/BLT/com.c ****   /* filter on communication interface identifier */
 171:Core/Src/BLT/com.c ****   switch (comActiveInterface)
 245              		.loc 1 171 3 view .LVU38
 246 0000 074B     		ldr	r3, .L32
 247 0002 1B78     		ldrb	r3, [r3]	@ zero_extendqisi2
 248 0004 022B     		cmp	r3, #2
 249 0006 07D0     		beq	.L28
 250 0008 032B     		cmp	r3, #3
 251 000a 07D0     		beq	.L29
 252 000c 012B     		cmp	r3, #1
 253 000e 01D0     		beq	.L31
 254 0010 4020     		movs	r0, #64
 255              	.LVL11:
 172:Core/Src/BLT/com.c ****   {
 173:Core/Src/BLT/com.c ****     case COM_IF_RS232:
 174:Core/Src/BLT/com.c ****       result = BOOT_COM_RS232_TX_MAX_DATA;
 175:Core/Src/BLT/com.c ****       break;
 176:Core/Src/BLT/com.c **** 
 177:Core/Src/BLT/com.c ****     case COM_IF_CAN:
 178:Core/Src/BLT/com.c ****       result = BOOT_COM_CAN_TX_MAX_DATA;
 179:Core/Src/BLT/com.c ****       break;
 180:Core/Src/BLT/com.c **** 
 181:Core/Src/BLT/com.c ****     case COM_IF_USB:
 182:Core/Src/BLT/com.c ****       result = BOOT_COM_USB_TX_MAX_DATA;
 183:Core/Src/BLT/com.c ****       break;
 184:Core/Src/BLT/com.c **** 
 185:Core/Src/BLT/com.c ****     case COM_IF_NET:
 186:Core/Src/BLT/com.c ****       result = BOOT_COM_NET_TX_MAX_DATA;
 187:Core/Src/BLT/com.c ****       break;
 188:Core/Src/BLT/com.c **** 
 189:Core/Src/BLT/com.c ****     default:
 190:Core/Src/BLT/com.c ****       result = BOOT_COM_TX_MAX_DATA;
 191:Core/Src/BLT/com.c ****       break;
 192:Core/Src/BLT/com.c ****   }
 193:Core/Src/BLT/com.c **** 
 194:Core/Src/BLT/com.c ****   return result;
 256              		.loc 1 194 3 view .LVU39
 195:Core/Src/BLT/com.c **** } /*** end of ComGetActiveInterfaceMaxTxLen ***/
 257              		.loc 1 195 1 is_stmt 0 view .LVU40
 258 0012 7047     		bx	lr
 259              	.LVL12:
 260              	.L31:
 178:Core/Src/BLT/com.c ****       break;
 261              		.loc 1 178 14 view .LVU41
 262 0014 0820     		movs	r0, #8
ARM GAS  /tmp/ccGFOAGz.s 			page 9


 263 0016 7047     		bx	lr
 264              	.L28:
 182:Core/Src/BLT/com.c ****       break;
 265              		.loc 1 182 14 view .LVU42
 266 0018 3F20     		movs	r0, #63
 267 001a 7047     		bx	lr
 268              	.L29:
 186:Core/Src/BLT/com.c ****       break;
 269              		.loc 1 186 14 view .LVU43
 270 001c 0020     		movs	r0, #0
 271 001e 7047     		bx	lr
 272              	.L33:
 273              		.align	2
 274              	.L32:
 275 0020 00000000 		.word	comActiveInterface
 276              		.cfi_endproc
 277              	.LFE5:
 279              		.section	.text.ComIsConnected,"ax",%progbits
 280              		.align	1
 281              		.global	ComIsConnected
 282              		.syntax unified
 283              		.thumb
 284              		.thumb_func
 286              	ComIsConnected:
 287              	.LFB6:
 196:Core/Src/BLT/com.c **** 
 197:Core/Src/BLT/com.c **** 
 198:Core/Src/BLT/com.c **** /************************************************************************************//**
 199:Core/Src/BLT/com.c **** ** \brief     This function obtains the XCP connection state.
 200:Core/Src/BLT/com.c **** ** \return    BLT_TRUE when an XCP connection is established, BLT_FALSE otherwise.
 201:Core/Src/BLT/com.c **** **
 202:Core/Src/BLT/com.c **** ****************************************************************************************/
 203:Core/Src/BLT/com.c **** blt_bool ComIsConnected(void)
 204:Core/Src/BLT/com.c **** {
 288              		.loc 1 204 1 is_stmt 1 view -0
 289              		.cfi_startproc
 290              		@ args = 0, pretend = 0, frame = 0
 291              		@ frame_needed = 0, uses_anonymous_args = 0
 292 0000 08B5     		push	{r3, lr}
 293              		.cfi_def_cfa_offset 8
 294              		.cfi_offset 3, -8
 295              		.cfi_offset 14, -4
 205:Core/Src/BLT/com.c ****   blt_bool result = BLT_FALSE;
 296              		.loc 1 205 3 view .LVU45
 297              	.LVL13:
 206:Core/Src/BLT/com.c **** 
 207:Core/Src/BLT/com.c ****   /* Is there an active XCP connection? This indicates that the communication interface
 208:Core/Src/BLT/com.c ****    * is in the connection state. 
 209:Core/Src/BLT/com.c ****    */  
 210:Core/Src/BLT/com.c ****   if (XcpIsConnected())
 298              		.loc 1 210 3 view .LVU46
 299              		.loc 1 210 7 is_stmt 0 view .LVU47
 300 0002 FFF7FEFF 		bl	XcpIsConnected
 301              	.LVL14:
 302              		.loc 1 210 6 view .LVU48
 303 0006 00B1     		cbz	r0, .L35
 211:Core/Src/BLT/com.c ****   {
ARM GAS  /tmp/ccGFOAGz.s 			page 10


 212:Core/Src/BLT/com.c ****     result = BLT_TRUE;
 304              		.loc 1 212 12 view .LVU49
 305 0008 0120     		movs	r0, #1
 306              	.L35:
 307              	.LVL15:
 213:Core/Src/BLT/com.c ****   }
 214:Core/Src/BLT/com.c **** #if (ADDON_GATEWAY_MOD_ENABLE > 0)
 215:Core/Src/BLT/com.c ****   /* Is the gateway active? This indicates an XCP connection with a slave. */
 216:Core/Src/BLT/com.c ****   if (GatewayIsActive())
 217:Core/Src/BLT/com.c ****   {
 218:Core/Src/BLT/com.c ****     result = BLT_TRUE;
 219:Core/Src/BLT/com.c ****   }
 220:Core/Src/BLT/com.c **** #endif
 221:Core/Src/BLT/com.c ****   /* give the result back to the caller. */
 222:Core/Src/BLT/com.c ****   return result;
 308              		.loc 1 222 3 is_stmt 1 view .LVU50
 223:Core/Src/BLT/com.c **** } /*** end of ComIsConnected ***/
 309              		.loc 1 223 1 is_stmt 0 view .LVU51
 310 000a 08BD     		pop	{r3, pc}
 311              		.cfi_endproc
 312              	.LFE6:
 314              		.section	.bss.xcpCtoReqPacket.0,"aw",%nobits
 315              		.align	2
 318              	xcpCtoReqPacket.0:
 319 0000 00000000 		.space	64
 319      00000000 
 319      00000000 
 319      00000000 
 319      00000000 
 320              		.section	.data.comActiveInterface,"aw"
 323              	comActiveInterface:
 324 0000 04       		.byte	4
 325              		.text
 326              	.Letext0:
 327              		.file 2 "Core/Inc/BLT/types.h"
 328              		.file 3 "Core/Inc/BLT/com.h"
 329              		.file 4 "Core/Inc/BLT/can.h"
 330              		.file 5 "Core/Inc/BLT/xcp.h"
ARM GAS  /tmp/ccGFOAGz.s 			page 11

